target datalayout = "e-m:e-p270:32:32-p271:32:32-p272:64:64-i64:64-i128:128-f80:128-n8:16:32:64-S128"
target triple = "x86_64-unknown-linux-gnu"

%"class.llvh::StringRef" = type { ptr, i64 }
%"class.llvh::SMLoc" = type { ptr }
%"class.llvh::Twine" = type <{ %"union.llvh::Twine::Child", %"union.llvh::Twine::Child", i8, i8, [6 x i8] }>
%"union.llvh::Twine::Child" = type { ptr }
%"class.llvh::ArrayRef" = type { ptr, i64 }
%"class.llvh::ArrayRef.24" = type { ptr, i64 }

@.str.24 = private unnamed_addr constant [3 x i8] c"]]\00", align 1
@.str.25 = private unnamed_addr constant [39 x i8] c"missing closing \22]\22 for regex variable\00", align 1

; Function Attrs: mustprogress nounwind uwtable
define linkonce_odr hidden void @_ZN4llvh5SMLocC2Ev(ptr noundef nonnull align 8 dereferenceable(8) %this) unnamed_addr #0 comdat align 2 {
entry:
  %this.addr = alloca ptr, align 8
  store ptr %this, ptr %this.addr, align 8
  %this1 = load ptr, ptr %this.addr, align 8
  %Ptr = getelementptr inbounds %"class.llvh::SMLoc", ptr %this1, i32 0, i32 0
  store ptr null, ptr %Ptr, align 8
  ret void
}

; Function Attrs: mustprogress nounwind uwtable
define linkonce_odr hidden void @_ZN4llvh8ArrayRefINS_7SMFixItEEC2ENS_8NoneTypeE(ptr noundef nonnull align 8 dereferenceable(16) %this, i32 noundef %0) unnamed_addr #0 comdat align 2 {
entry:
  %this.addr = alloca ptr, align 8
  %.addr = alloca i32, align 4
  store ptr %this, ptr %this.addr, align 8
  store i32 %0, ptr %.addr, align 4
  %this1 = load ptr, ptr %this.addr, align 8
  %Data = getelementptr inbounds %"class.llvh::ArrayRef.24", ptr %this1, i32 0, i32 0
  store ptr null, ptr %Data, align 8
  %Length = getelementptr inbounds %"class.llvh::ArrayRef.24", ptr %this1, i32 0, i32 1
  store i64 0, ptr %Length, align 8
  ret void
}

; Function Attrs: mustprogress nounwind uwtable
define linkonce_odr hidden void @_ZN4llvh8ArrayRefINS_7SMRangeEEC2ENS_8NoneTypeE(ptr noundef nonnull align 8 dereferenceable(16) %this, i32 noundef %0) unnamed_addr #0 comdat align 2 {
entry:
  %this.addr = alloca ptr, align 8
  %.addr = alloca i32, align 4
  store ptr %this, ptr %this.addr, align 8
  store i32 %0, ptr %.addr, align 4
  %this1 = load ptr, ptr %this.addr, align 8
  %Data = getelementptr inbounds %"class.llvh::ArrayRef", ptr %this1, i32 0, i32 0
  store ptr null, ptr %Data, align 8
  %Length = getelementptr inbounds %"class.llvh::ArrayRef", ptr %this1, i32 0, i32 1
  store i64 0, ptr %Length, align 8
  ret void
}

; Function Attrs: mustprogress nounwind uwtable
define linkonce_odr hidden void @_ZN4llvh5TwineC2EPKc(ptr noundef nonnull align 8 dereferenceable(18) %this, ptr noundef %Str) unnamed_addr #0 comdat align 2 {
entry:
  %this.addr = alloca ptr, align 8
  %Str.addr = alloca ptr, align 8
  store ptr %this, ptr %this.addr, align 8
  store ptr %Str, ptr %Str.addr, align 8
  %this1 = load ptr, ptr %this.addr, align 8
  %LHSKind = getelementptr inbounds %"class.llvh::Twine", ptr %this1, i32 0, i32 2
  store i8 1, ptr %LHSKind, align 8
  %RHSKind = getelementptr inbounds %"class.llvh::Twine", ptr %this1, i32 0, i32 3
  store i8 1, ptr %RHSKind, align 1
  %0 = load ptr, ptr %Str.addr, align 8
  %arrayidx = getelementptr inbounds i8, ptr %0, i64 0
  %1 = load i8, ptr %arrayidx, align 1
  %conv = sext i8 %1 to i32
  %cmp = icmp ne i32 %conv, 0
  br i1 %cmp, label %if.then, label %if.else

if.then:                                          ; preds = %entry
  %2 = load ptr, ptr %Str.addr, align 8
  %LHS2 = getelementptr inbounds %"class.llvh::Twine", ptr %this1, i32 0, i32 0
  store ptr %2, ptr %LHS2, align 8
  %LHSKind3 = getelementptr inbounds %"class.llvh::Twine", ptr %this1, i32 0, i32 2
  store i8 3, ptr %LHSKind3, align 8
  br label %if.end

if.else:                                          ; preds = %entry
  %LHSKind4 = getelementptr inbounds %"class.llvh::Twine", ptr %this1, i32 0, i32 2
  store i8 1, ptr %LHSKind4, align 8
  br label %if.end

if.end:                                           ; preds = %if.else, %if.then
  ret void
}

; Function Attrs: mustprogress nounwind uwtable
define linkonce_odr hidden ptr @_ZN4llvh5SMLoc14getFromPointerEPKc(ptr noundef %Ptr) #0 comdat align 2 {
entry:
  %retval = alloca %"class.llvh::SMLoc", align 8
  %Ptr.addr = alloca ptr, align 8
  store ptr %Ptr, ptr %Ptr.addr, align 8
  call void @_ZN4llvh5SMLocC2Ev(ptr noundef nonnull align 8 dereferenceable(8) %retval) #13
  %0 = load ptr, ptr %Ptr.addr, align 8
  %Ptr1 = getelementptr inbounds %"class.llvh::SMLoc", ptr %retval, i32 0, i32 0
  store ptr %0, ptr %Ptr1, align 8
  %coerce.dive = getelementptr inbounds %"class.llvh::SMLoc", ptr %retval, i32 0, i32 0
  %1 = load ptr, ptr %coerce.dive, align 8
  ret ptr %1
}

; Function Attrs: mustprogress nounwind uwtable
define linkonce_odr noundef nonnull align 8 dereferenceable(8) ptr @_ZSt3minImERKT_S2_S2_(ptr noundef nonnull align 8 dereferenceable(8) %__a, ptr noundef nonnull align 8 dereferenceable(8) %__b) #0 comdat {
entry:
  %retval = alloca ptr, align 8
  %__a.addr = alloca ptr, align 8
  %__b.addr = alloca ptr, align 8
  store ptr %__a, ptr %__a.addr, align 8
  store ptr %__b, ptr %__b.addr, align 8
  %0 = load ptr, ptr %__b.addr, align 8
  %1 = load i64, ptr %0, align 8
  %2 = load ptr, ptr %__a.addr, align 8
  %3 = load i64, ptr %2, align 8
  %cmp = icmp ult i64 %1, %3
  br i1 %cmp, label %if.then, label %if.end

if.then:                                          ; preds = %entry
  %4 = load ptr, ptr %__b.addr, align 8
  store ptr %4, ptr %retval, align 8
  br label %return

if.end:                                           ; preds = %entry
  %5 = load ptr, ptr %__a.addr, align 8
  store ptr %5, ptr %retval, align 8
  br label %return

return:                                           ; preds = %if.end, %if.then
  %6 = load ptr, ptr %retval, align 8
  ret ptr %6
}

; Function Attrs: mustprogress nounwind uwtable
define linkonce_odr hidden noundef signext i8 @_ZNK4llvh9StringRefixEm(ptr noundef nonnull align 8 dereferenceable(16) %this, i64 noundef %Index) #0 comdat align 2 {
entry:
  %this.addr = alloca ptr, align 8
  %Index.addr = alloca i64, align 8
  store ptr %this, ptr %this.addr, align 8
  store i64 %Index, ptr %Index.addr, align 8
  %this1 = load ptr, ptr %this.addr, align 8
  %Data = getelementptr inbounds %"class.llvh::StringRef", ptr %this1, i32 0, i32 0
  %0 = load ptr, ptr %Data, align 8
  %1 = load i64, ptr %Index.addr, align 8
  %arrayidx = getelementptr inbounds i8, ptr %0, i64 %1
  %2 = load i8, ptr %arrayidx, align 1
  ret i8 %2
}

; Function Attrs: mustprogress nounwind uwtable
define hidden noundef i64 @_ZN4llvh16FileCheckPattern15FindRegexVarEndENS_9StringRefERNS_9SourceMgrE(ptr noundef nonnull align 8 dereferenceable(136) %this, ptr %Str.coerce0, i64 %Str.coerce1, ptr noundef nonnull align 8 dereferenceable(120) %SM) #0 align 2 {
entry:
  %retval.i59 = alloca i32, align 4
  %Lhs.addr.i = alloca ptr, align 8
  %Rhs.addr.i = alloca ptr, align 8
  %Length.addr.i = alloca i64, align 8
  %this.addr.i54 = alloca ptr, align 8
  %data.addr.i55 = alloca ptr, align 8
  %length.addr.i56 = alloca i64, align 8
  %this.addr.i51 = alloca ptr, align 8
  %data.addr.i = alloca ptr, align 8
  %length.addr.i = alloca i64, align 8
  %Prefix.i = alloca %"class.llvh::StringRef", align 8
  %this.addr.i45 = alloca ptr, align 8
  %this.addr.i41 = alloca ptr, align 8
  %Str.addr.i = alloca ptr, align 8
  %retval.i29 = alloca %"class.llvh::StringRef", align 8
  %this.addr.i30 = alloca ptr, align 8
  %Start.addr.i31 = alloca i64, align 8
  %N.addr.i32 = alloca i64, align 8
  %ref.tmp.i33 = alloca i64, align 8
  %retval.i = alloca %"class.llvh::StringRef", align 8
  %this.addr.i26 = alloca ptr, align 8
  %Start.addr.i = alloca i64, align 8
  %N.addr.i = alloca i64, align 8
  %ref.tmp.i = alloca i64, align 8
  %this.addr.i24 = alloca ptr, align 8
  %this.addr.i = alloca ptr, align 8
  %retval = alloca i64, align 8
  %Str = alloca %"class.llvh::StringRef", align 8
  %this.addr = alloca ptr, align 8
  %SM.addr = alloca ptr, align 8
  %Offset = alloca i64, align 8
  %BracketDepth = alloca i64, align 8
  %agg.tmp = alloca %"class.llvh::StringRef", align 8
  %ref.tmp = alloca %"class.llvh::StringRef", align 8
  %agg.tmp12 = alloca %"class.llvh::SMLoc", align 8
  %ref.tmp15 = alloca %"class.llvh::Twine", align 8
  %agg.tmp16 = alloca %"class.llvh::ArrayRef", align 8
  %agg.tmp17 = alloca %"class.llvh::ArrayRef.24", align 8
  %ref.tmp20 = alloca %"class.llvh::StringRef", align 8
  %0 = getelementptr inbounds { ptr, i64 }, ptr %Str, i32 0, i32 0
  store ptr %Str.coerce0, ptr %0, align 8
  %1 = getelementptr inbounds { ptr, i64 }, ptr %Str, i32 0, i32 1
  store i64 %Str.coerce1, ptr %1, align 8
  store ptr %this, ptr %this.addr, align 8
  store ptr %SM, ptr %SM.addr, align 8
  store i64 0, ptr %Offset, align 8
  store i64 0, ptr %BracketDepth, align 8
  br label %while.cond

while.cond:                                       ; preds = %if.end23, %entry
  store ptr %Str, ptr %this.addr.i24, align 8
  %this1.i25 = load ptr, ptr %this.addr.i24, align 8
  %Length.i = getelementptr inbounds %"class.llvh::StringRef", ptr %this1.i25, i32 0, i32 1
  %2 = load i64, ptr %Length.i, align 8
  %cmp.i = icmp eq i64 %2, 0
  %lnot = xor i1 %cmp.i, true
  br i1 %lnot, label %while.body, label %while.end

while.body:                                       ; preds = %while.cond
  store ptr %agg.tmp, ptr %this.addr.i41, align 8
  store ptr @.str.24, ptr %Str.addr.i, align 8
  %this1.i42 = load ptr, ptr %this.addr.i41, align 8
  %3 = load ptr, ptr %Str.addr.i, align 8
  store ptr %3, ptr %this1.i42, align 8
  %Length.i43 = getelementptr inbounds %"class.llvh::StringRef", ptr %this1.i42, i32 0, i32 1
  %4 = load ptr, ptr %Str.addr.i, align 8
  %tobool.i = icmp ne ptr %4, null
  br i1 %tobool.i, label %cond.true.i, label %cond.false.i

cond.true.i:                                      ; preds = %while.body
  %5 = load ptr, ptr %Str.addr.i, align 8
  %call.i44 = call i64 @strlen(ptr noundef %5) #12
  br label %_ZN4llvh9StringRefC2EPKc.exit

cond.false.i:                                     ; preds = %while.body
  br label %_ZN4llvh9StringRefC2EPKc.exit

_ZN4llvh9StringRefC2EPKc.exit:                    ; preds = %cond.false.i, %cond.true.i
  %cond.i = phi i64 [ %call.i44, %cond.true.i ], [ 0, %cond.false.i ]
  store i64 %cond.i, ptr %Length.i43, align 8
  %6 = getelementptr inbounds { ptr, i64 }, ptr %agg.tmp, i32 0, i32 0
  %7 = load ptr, ptr %6, align 8
  %8 = getelementptr inbounds { ptr, i64 }, ptr %agg.tmp, i32 0, i32 1
  %9 = load i64, ptr %8, align 8
  store ptr %7, ptr %Prefix.i, align 8
  %10 = getelementptr inbounds { ptr, i64 }, ptr %Prefix.i, i32 0, i32 1
  store i64 %9, ptr %10, align 8
  store ptr %Str, ptr %this.addr.i45, align 8
  %this1.i46 = load ptr, ptr %this.addr.i45, align 8
  %Length.i47 = getelementptr inbounds %"class.llvh::StringRef", ptr %this1.i46, i32 0, i32 1
  %11 = load i64, ptr %Length.i47, align 8
  %Length2.i48 = getelementptr inbounds %"class.llvh::StringRef", ptr %Prefix.i, i32 0, i32 1
  %12 = load i64, ptr %Length2.i48, align 8
  %cmp.i49 = icmp uge i64 %11, %12
  br i1 %cmp.i49, label %land.rhs.i, label %_ZNK4llvh9StringRef10startswithES0_.exit

land.rhs.i:                                       ; preds = %_ZN4llvh9StringRefC2EPKc.exit
  %13 = load ptr, ptr %this1.i46, align 8
  %14 = load ptr, ptr %Prefix.i, align 8
  %Length4.i = getelementptr inbounds %"class.llvh::StringRef", ptr %Prefix.i, i32 0, i32 1
  %15 = load i64, ptr %Length4.i, align 8
  store ptr %13, ptr %Lhs.addr.i, align 8
  store ptr %14, ptr %Rhs.addr.i, align 8
  store i64 %15, ptr %Length.addr.i, align 8
  %16 = load i64, ptr %Length.addr.i, align 8
  %cmp.i60 = icmp eq i64 %16, 0
  br i1 %cmp.i60, label %if.then.i, label %if.end.i

if.then.i:                                        ; preds = %land.rhs.i
  store i32 0, ptr %retval.i59, align 4
  br label %_ZN4llvh9StringRef13compareMemoryEPKcS2_m.exit

if.end.i:                                         ; preds = %land.rhs.i
  %17 = load ptr, ptr %Lhs.addr.i, align 8
  %18 = load ptr, ptr %Rhs.addr.i, align 8
  %19 = load i64, ptr %Length.addr.i, align 8
  %call.i61 = call i32 @memcmp(ptr noundef %17, ptr noundef %18, i64 noundef %19) #12
  store i32 %call.i61, ptr %retval.i59, align 4
  br label %_ZN4llvh9StringRef13compareMemoryEPKcS2_m.exit

_ZN4llvh9StringRef13compareMemoryEPKcS2_m.exit:   ; preds = %if.end.i, %if.then.i
  %20 = load i32, ptr %retval.i59, align 4
  %cmp5.i = icmp eq i32 %20, 0
  br label %_ZNK4llvh9StringRef10startswithES0_.exit

_ZNK4llvh9StringRef10startswithES0_.exit:         ; preds = %_ZN4llvh9StringRef13compareMemoryEPKcS2_m.exit, %_ZN4llvh9StringRefC2EPKc.exit
  %21 = phi i1 [ false, %_ZN4llvh9StringRefC2EPKc.exit ], [ %cmp5.i, %_ZN4llvh9StringRef13compareMemoryEPKcS2_m.exit ]
  br i1 %21, label %land.lhs.true, label %if.end

land.lhs.true:                                    ; preds = %_ZNK4llvh9StringRef10startswithES0_.exit
  %22 = load i64, ptr %BracketDepth, align 8
  %cmp = icmp eq i64 %22, 0
  br i1 %cmp, label %if.then, label %if.end

if.then:                                          ; preds = %land.lhs.true
  %23 = load i64, ptr %Offset, align 8
  store i64 %23, ptr %retval, align 8
  br label %return

if.end:                                           ; preds = %land.lhs.true, %_ZNK4llvh9StringRef10startswithES0_.exit
  %call3 = call noundef signext i8 @_ZNK4llvh9StringRefixEm(ptr noundef nonnull align 8 dereferenceable(16) %Str, i64 noundef 0)
  %conv = sext i8 %call3 to i32
  %cmp4 = icmp eq i32 %conv, 92
  br i1 %cmp4, label %if.then5, label %if.else

if.then5:                                         ; preds = %if.end
  store ptr %Str, ptr %this.addr.i30, align 8
  store i64 2, ptr %Start.addr.i31, align 8
  store i64 -1, ptr %N.addr.i32, align 8
  %this1.i34 = load ptr, ptr %this.addr.i30, align 8
  %Length.i35 = getelementptr inbounds %"class.llvh::StringRef", ptr %this1.i34, i32 0, i32 1
  %call.i36 = call noundef nonnull align 8 dereferenceable(8) ptr @_ZSt3minImERKT_S2_S2_(ptr noundef nonnull align 8 dereferenceable(8) %Start.addr.i31, ptr noundef nonnull align 8 dereferenceable(8) %Length.i35)
  %24 = load i64, ptr %call.i36, align 8
  store i64 %24, ptr %Start.addr.i31, align 8
  %25 = load ptr, ptr %this1.i34, align 8
  %26 = load i64, ptr %Start.addr.i31, align 8
  %add.ptr.i37 = getelementptr inbounds i8, ptr %25, i64 %26
  %Length2.i38 = getelementptr inbounds %"class.llvh::StringRef", ptr %this1.i34, i32 0, i32 1
  %27 = load i64, ptr %Length2.i38, align 8
  %28 = load i64, ptr %Start.addr.i31, align 8
  %sub.i39 = sub i64 %27, %28
  store i64 %sub.i39, ptr %ref.tmp.i33, align 8
  %call3.i40 = call noundef nonnull align 8 dereferenceable(8) ptr @_ZSt3minImERKT_S2_S2_(ptr noundef nonnull align 8 dereferenceable(8) %N.addr.i32, ptr noundef nonnull align 8 dereferenceable(8) %ref.tmp.i33)
  %29 = load i64, ptr %call3.i40, align 8
  store ptr %retval.i29, ptr %this.addr.i51, align 8
  store ptr %add.ptr.i37, ptr %data.addr.i, align 8
  store i64 %29, ptr %length.addr.i, align 8
  %this1.i52 = load ptr, ptr %this.addr.i51, align 8
  %30 = load ptr, ptr %data.addr.i, align 8
  store ptr %30, ptr %this1.i52, align 8
  %Length.i53 = getelementptr inbounds %"class.llvh::StringRef", ptr %this1.i52, i32 0, i32 1
  %31 = load i64, ptr %length.addr.i, align 8
  store i64 %31, ptr %Length.i53, align 8
  %32 = load { ptr, i64 }, ptr %retval.i29, align 8
  %33 = getelementptr inbounds { ptr, i64 }, ptr %ref.tmp, i32 0, i32 0
  %34 = extractvalue { ptr, i64 } %32, 0
  store ptr %34, ptr %33, align 8
  %35 = getelementptr inbounds { ptr, i64 }, ptr %ref.tmp, i32 0, i32 1
  %36 = extractvalue { ptr, i64 } %32, 1
  store i64 %36, ptr %35, align 8
  call void @llvm.memcpy.p0.p0.i64(ptr align 8 %Str, ptr align 8 %ref.tmp, i64 16, i1 false)
  %37 = load i64, ptr %Offset, align 8
  %add = add i64 %37, 2
  store i64 %add, ptr %Offset, align 8
  br label %if.end23

if.else:                                          ; preds = %if.end
  %call7 = call noundef signext i8 @_ZNK4llvh9StringRefixEm(ptr noundef nonnull align 8 dereferenceable(16) %Str, i64 noundef 0)
  %conv8 = sext i8 %call7 to i32
  switch i32 %conv8, label %sw.default [
    i32 91, label %sw.bb
    i32 93, label %sw.bb9
  ]

sw.default:                                       ; preds = %if.else
  br label %sw.epilog

sw.bb:                                            ; preds = %if.else
  %38 = load i64, ptr %BracketDepth, align 8
  %inc = add i64 %38, 1
  store i64 %inc, ptr %BracketDepth, align 8
  br label %sw.epilog

sw.bb9:                                           ; preds = %if.else
  %39 = load i64, ptr %BracketDepth, align 8
  %cmp10 = icmp eq i64 %39, 0
  br i1 %cmp10, label %if.then11, label %if.end19

if.then11:                                        ; preds = %sw.bb9
  %40 = load ptr, ptr %SM.addr, align 8
  store ptr %Str, ptr %this.addr.i, align 8
  %this1.i = load ptr, ptr %this.addr.i, align 8
  %41 = load ptr, ptr %this1.i, align 8
  %call14 = call ptr @_ZN4llvh5SMLoc14getFromPointerEPKc(ptr noundef %41)
  %coerce.dive = getelementptr inbounds %"class.llvh::SMLoc", ptr %agg.tmp12, i32 0, i32 0
  store ptr %call14, ptr %coerce.dive, align 8
  call void @_ZN4llvh5TwineC2EPKc(ptr noundef nonnull align 8 dereferenceable(18) %ref.tmp15, ptr noundef @.str.25)
  call void @_ZN4llvh8ArrayRefINS_7SMRangeEEC2ENS_8NoneTypeE(ptr noundef nonnull align 8 dereferenceable(16) %agg.tmp16, i32 noundef 1)
  call void @_ZN4llvh8ArrayRefINS_7SMFixItEEC2ENS_8NoneTypeE(ptr noundef nonnull align 8 dereferenceable(16) %agg.tmp17, i32 noundef 1)
  %coerce.dive18 = getelementptr inbounds %"class.llvh::SMLoc", ptr %agg.tmp12, i32 0, i32 0
  %42 = load ptr, ptr %coerce.dive18, align 8
  %43 = getelementptr inbounds { ptr, i64 }, ptr %agg.tmp16, i32 0, i32 0
  %44 = load ptr, ptr %43, align 8
  %45 = getelementptr inbounds { ptr, i64 }, ptr %agg.tmp16, i32 0, i32 1
  %46 = load i64, ptr %45, align 8
  call void @_ZNK4llvh9SourceMgr12PrintMessageENS_5SMLocENS0_8DiagKindERKNS_5TwineENS_8ArrayRefINS_7SMRangeEEENS6_INS_7SMFixItEEEb(ptr noundef nonnull align 8 dereferenceable(120) %40, ptr %42, i32 noundef 0, ptr noundef nonnull align 8 dereferenceable(18) %ref.tmp15, ptr %44, i64 %46, ptr noundef byval(%"class.llvh::ArrayRef.24") align 8 %agg.tmp17, i1 noundef zeroext true)
  call void @exit(i32 noundef 1) #14
  unreachable

if.end19:                                         ; preds = %sw.bb9
  %47 = load i64, ptr %BracketDepth, align 8
  %dec = add i64 %47, -1
  store i64 %dec, ptr %BracketDepth, align 8
  br label %sw.epilog

sw.epilog:                                        ; preds = %if.end19, %sw.bb, %sw.default
  store ptr %Str, ptr %this.addr.i26, align 8
  store i64 1, ptr %Start.addr.i, align 8
  store i64 -1, ptr %N.addr.i, align 8
  %this1.i27 = load ptr, ptr %this.addr.i26, align 8
  %Length.i28 = getelementptr inbounds %"class.llvh::StringRef", ptr %this1.i27, i32 0, i32 1
  %call.i = call noundef nonnull align 8 dereferenceable(8) ptr @_ZSt3minImERKT_S2_S2_(ptr noundef nonnull align 8 dereferenceable(8) %Start.addr.i, ptr noundef nonnull align 8 dereferenceable(8) %Length.i28)
  %48 = load i64, ptr %call.i, align 8
  store i64 %48, ptr %Start.addr.i, align 8
  %49 = load ptr, ptr %this1.i27, align 8
  %50 = load i64, ptr %Start.addr.i, align 8
  %add.ptr.i = getelementptr inbounds i8, ptr %49, i64 %50
  %Length2.i = getelementptr inbounds %"class.llvh::StringRef", ptr %this1.i27, i32 0, i32 1
  %51 = load i64, ptr %Length2.i, align 8
  %52 = load i64, ptr %Start.addr.i, align 8
  %sub.i = sub i64 %51, %52
  store i64 %sub.i, ptr %ref.tmp.i, align 8
  %call3.i = call noundef nonnull align 8 dereferenceable(8) ptr @_ZSt3minImERKT_S2_S2_(ptr noundef nonnull align 8 dereferenceable(8) %N.addr.i, ptr noundef nonnull align 8 dereferenceable(8) %ref.tmp.i)
  %53 = load i64, ptr %call3.i, align 8
  store ptr %retval.i, ptr %this.addr.i54, align 8
  store ptr %add.ptr.i, ptr %data.addr.i55, align 8
  store i64 %53, ptr %length.addr.i56, align 8
  %this1.i57 = load ptr, ptr %this.addr.i54, align 8
  %54 = load ptr, ptr %data.addr.i55, align 8
  store ptr %54, ptr %this1.i57, align 8
  %Length.i58 = getelementptr inbounds %"class.llvh::StringRef", ptr %this1.i57, i32 0, i32 1
  %55 = load i64, ptr %length.addr.i56, align 8
  store i64 %55, ptr %Length.i58, align 8
  %56 = load { ptr, i64 }, ptr %retval.i, align 8
  %57 = getelementptr inbounds { ptr, i64 }, ptr %ref.tmp20, i32 0, i32 0
  %58 = extractvalue { ptr, i64 } %56, 0
  store ptr %58, ptr %57, align 8
  %59 = getelementptr inbounds { ptr, i64 }, ptr %ref.tmp20, i32 0, i32 1
  %60 = extractvalue { ptr, i64 } %56, 1
  store i64 %60, ptr %59, align 8
  call void @llvm.memcpy.p0.p0.i64(ptr align 8 %Str, ptr align 8 %ref.tmp20, i64 16, i1 false)
  %61 = load i64, ptr %Offset, align 8
  %inc22 = add i64 %61, 1
  store i64 %inc22, ptr %Offset, align 8
  br label %if.end23

if.end23:                                         ; preds = %sw.epilog, %if.then5
  br label %while.cond, !llvm.loop !8

while.end:                                        ; preds = %while.cond
  store i64 -1, ptr %retval, align 8
  br label %return

return:                                           ; preds = %while.end, %if.then
  %62 = load i64, ptr %retval, align 8
  ret i64 %62
}