; Function Attrs: mustprogress nounwind uwtable
define hidden noundef i64 @_ZN4llvh16FileCheckPattern15FindRegexVarEndENS_9StringRefERNS_9SourceMgrE(ptr nocapture nonnull readnone align 8 %this, ptr %Str.coerce0, i64 %Str.coerce1, ptr noundef nonnull align 8 dereferenceable(120) %SM) local_unnamed_addr #0 align 2 {
entry:
  %ref.tmp15 = alloca %"class.llvh::Twine", align 8
  %agg.tmp17 = alloca %"class.llvh::ArrayRef.24", align 8
  br label %while.cond

while.cond:                                       ; preds = %if.end23, %entry
  %Str.sroa.0.0 = phi ptr [ %Str.coerce0, %entry ], [ %Str.sroa.0.1, %if.end23 ]
  %Str.sroa.9.0 = phi i64 [ %Str.coerce1, %entry ], [ %Str.sroa.9.1, %if.end23 ]
  %BracketDepth.0 = phi i64 [ 0, %entry ], [ %BracketDepth.2, %if.end23 ]
  %Offset.0 = phi i64 [ 0, %entry ], [ %inc22, %if.end23 ]
  switch i64 %Str.sroa.9.0, label %if.end.i [
    i64 0, label %return
    i64 1, label %if.end
  ]

if.end.i:                                         ; preds = %while.cond
  %bcmp = tail call i32 @bcmp(ptr noundef nonnull dereferenceable(2) %Str.sroa.0.0, ptr noundef nonnull dereferenceable(2) @.str.24, i64 2)
  %cmp5.i = icmp eq i32 %bcmp, 0
  %cmp = icmp eq i64 %BracketDepth.0, 0
  %or.cond = select i1 %cmp5.i, i1 %cmp, i1 false
  br i1 %or.cond, label %return, label %if.end

if.end:                                           ; preds = %while.cond, %if.end.i
  %0 = load i8, ptr %Str.sroa.0.0, align 1
  switch i8 %0, label %sw.epilog [
    i8 92, label %if.then5
    i8 91, label %sw.bb
    i8 93, label %sw.bb9
  ]

if.then5:                                         ; preds = %if.end
  %.sroa.speculated35 = tail call i64 @llvm.umin.i64(i64 %Str.sroa.9.0, i64 2)
  %add.ptr.i37 = getelementptr inbounds i8, ptr %Str.sroa.0.0, i64 %.sroa.speculated35
  %sub.i39 = sub i64 %Str.sroa.9.0, %.sroa.speculated35
  br label %if.end23

sw.bb:                                            ; preds = %if.end
  %inc = add i64 %BracketDepth.0, 1
  br label %sw.epilog

sw.bb9:                                           ; preds = %if.end
  %cmp10 = icmp eq i64 %BracketDepth.0, 0
  br i1 %cmp10, label %if.then11, label %if.end19

if.then11:                                        ; preds = %sw.bb9
  %LHSKind.i = getelementptr inbounds i8, ptr %ref.tmp15, i64 16
  %RHSKind.i = getelementptr inbounds i8, ptr %ref.tmp15, i64 17
  store i8 1, ptr %RHSKind.i, align 1
  store ptr @.str.25, ptr %ref.tmp15, align 8
  store i8 3, ptr %LHSKind.i, align 8
  call void @llvm.memset.p0.i64(ptr noundef nonnull align 8 dereferenceable(16) %agg.tmp17, i8 0, i64 16, i1 false)
  call void @_ZNK4llvh9SourceMgr12PrintMessageENS_5SMLocENS0_8DiagKindERKNS_5TwineENS_8ArrayRefINS_7SMRangeEEENS6_INS_7SMFixItEEEb(ptr noundef nonnull align 8 dereferenceable(120) %SM, ptr nonnull %Str.sroa.0.0, i32 noundef 0, ptr noundef nonnull align 8 dereferenceable(18) %ref.tmp15, ptr null, i64 0, ptr noundef nonnull byval(%"class.llvh::ArrayRef.24") align 8 %agg.tmp17, i1 noundef zeroext true) #18
  call void @exit(i32 noundef 1) #20
  unreachable

if.end19:                                         ; preds = %sw.bb9
  %dec = add i64 %BracketDepth.0, -1
  br label %sw.epilog

sw.epilog:                                        ; preds = %if.end, %if.end19, %sw.bb
  %BracketDepth.1 = phi i64 [ %dec, %if.end19 ], [ %inc, %sw.bb ], [ %BracketDepth.0, %if.end ]
  %add.ptr.i = getelementptr inbounds i8, ptr %Str.sroa.0.0, i64 1
  %sub.i = add i64 %Str.sroa.9.0, -1
  br label %if.end23

if.end23:                                         ; preds = %sw.epilog, %if.then5
  %.sink = phi i64 [ 1, %sw.epilog ], [ 2, %if.then5 ]
  %Str.sroa.0.1 = phi ptr [ %add.ptr.i, %sw.epilog ], [ %add.ptr.i37, %if.then5 ]
  %Str.sroa.9.1 = phi i64 [ %sub.i, %sw.epilog ], [ %sub.i39, %if.then5 ]
  %BracketDepth.2 = phi i64 [ %BracketDepth.1, %sw.epilog ], [ %BracketDepth.0, %if.then5 ]
  %inc22 = add i64 %Offset.0, %.sink
  br label %while.cond, !llvm.loop !31

return:                                           ; preds = %while.cond, %if.end.i
  %retval.0 = phi i64 [ %Offset.0, %if.end.i ], [ -1, %while.cond ]
  ret i64 %retval.0
}